Certificate:
    Data:
        Version: 3 (0x2)
        Serial Number: 24012 (0x5dcc)
    Signature Algorithm: sha1WithRSAEncryption
        Issuer: C=DE, ST=NRW, L=Bochum, O=VPNSafe, CN=CompanyVPNSafe/name=ca/emailAddress=support@vpnsafe.ru
        Validity
            Not Before: Jun 30 07:19:24 2017 GMT
            Not After : Jun 28 07:19:24 2027 GMT
        Subject: C=DE, ST=NRW, L=Bochum, O=VPNSafe, CN=w4vihifn/emailAddress=support@vpnsafe.ru
        Subject Public Key Info:
            Public Key Algorithm: rsaEncryption
                Public-Key: (1024 bit)
                Modulus:
                    00:e3:c1:c7:97:97:e8:49:91:2e:33:ab:3e:e9:3c:
                    e4:36:b8:bd:02:f8:27:f2:61:e6:db:17:af:4c:91:
                    bc:36:3a:0f:33:47:bc:8d:71:37:9a:80:c7:ae:92:
                    15:d3:58:b7:2b:a0:ce:0f:3d:bd:73:3f:b1:34:d4:
                    d9:ae:44:8f:35:0f:55:03:a8:58:e5:d2:e0:a5:64:
                    8a:16:89:01:6f:f9:c9:ff:6d:8f:47:0a:9c:48:62:
                    14:b2:f2:74:23:f2:08:10:2d:73:6c:40:59:bf:b7:
                    7f:cc:93:97:42:f6:32:9b:a5:e1:ca:06:b4:ac:4a:
                    7b:c9:7c:d1:20:fe:db:9a:a7
                Exponent: 65537 (0x10001)
        X509v3 extensions:
            X509v3 Basic Constraints: 
                CA:FALSE
            Netscape Comment: 
                Easy-RSA Generated Certificate
            X509v3 Subject Key Identifier: 
                E1:D3:AF:FB:1F:F7:51:F4:E2:5F:41:AA:EF:71:B9:D5:77:A8:11:02
            X509v3 Authority Key Identifier: 
                keyid:2B:79:83:80:00:DC:7E:96:54:19:15:07:F5:F0:F8:68:93:D6:60:A1
                DirName:/C=DE/ST=NRW/L=Bochum/O=VPNSafe/CN=CompanyVPNSafe/name=ca/emailAddress=support@vpnsafe.ru
                serial:81:95:BD:33:51:E3:BE:49

            X509v3 Extended Key Usage: 
                TLS Web Client Authentication
            X509v3 Key Usage: 
                Digital Signature
    Signature Algorithm: sha1WithRSAEncryption
         08:b8:7e:5d:0d:51:d0:d6:3a:9b:e7:d8:f0:9a:87:a8:01:90:
         d9:ac:31:98:ae:79:19:d8:ca:5f:61:c8:7e:30:e7:97:12:ec:
         2b:a5:83:3b:b9:02:a1:e1:b7:07:93:16:03:6c:1c:78:2c:26:
         91:fe:5a:bd:42:6c:be:1e:9d:03:e7:4e:cc:25:81:ff:be:ce:
         f8:c2:57:08:a1:50:c9:ab:f5:5f:27:a4:5c:1c:2e:0c:93:24:
         d0:b8:0d:46:c3:68:2a:d0:f5:a7:11:ce:85:b6:c5:36:61:9e:
         3e:04:31:cc:6f:95:2b:77:a4:a3:54:ae:ae:d1:e1:ad:82:01:
         7e:d7
-----BEGIN CERTIFICATE-----
MIIDszCCAxygAwIBAgICXcwwDQYJKoZIhvcNAQEFBQAwgYcxCzAJBgNVBAYTAkRF
MQwwCgYDVQQIEwNOUlcxDzANBgNVBAcTBkJvY2h1bTEQMA4GA1UEChMHVlBOU2Fm
ZTEXMBUGA1UEAxMOQ29tcGFueVZQTlNhZmUxCzAJBgNVBCkTAmNhMSEwHwYJKoZI
hvcNAQkBFhJzdXBwb3J0QHZwbnNhZmUucnUwHhcNMTcwNjMwMDcxOTI0WhcNMjcw
NjI4MDcxOTI0WjB0MQswCQYDVQQGEwJERTEMMAoGA1UECBMDTlJXMQ8wDQYDVQQH
EwZCb2NodW0xEDAOBgNVBAoTB1ZQTlNhZmUxETAPBgNVBAMTCHc0dmloaWZuMSEw
HwYJKoZIhvcNAQkBFhJzdXBwb3J0QHZwbnNhZmUucnUwgZ8wDQYJKoZIhvcNAQEB
BQADgY0AMIGJAoGBAOPBx5eX6EmRLjOrPuk85Da4vQL4J/Jh5tsXr0yRvDY6DzNH
vI1xN5qAx66SFdNYtyugzg89vXM/sTTU2a5EjzUPVQOoWOXS4KVkihaJAW/5yf9t
j0cKnEhiFLLydCPyCBAtc2xAWb+3f8yTl0L2Mpul4coGtKxKe8l80SD+25qnAgMB
AAGjggE+MIIBOjAJBgNVHRMEAjAAMC0GCWCGSAGG+EIBDQQgFh5FYXN5LVJTQSBH
ZW5lcmF0ZWQgQ2VydGlmaWNhdGUwHQYDVR0OBBYEFOHTr/sf91H04l9Bqu9xudV3
qBECMIG8BgNVHSMEgbQwgbGAFCt5g4AA3H6WVBkVB/Xw+GiT1mChoYGNpIGKMIGH
MQswCQYDVQQGEwJERTEMMAoGA1UECBMDTlJXMQ8wDQYDVQQHEwZCb2NodW0xEDAO
BgNVBAoTB1ZQTlNhZmUxFzAVBgNVBAMTDkNvbXBhbnlWUE5TYWZlMQswCQYDVQQp
EwJjYTEhMB8GCSqGSIb3DQEJARYSc3VwcG9ydEB2cG5zYWZlLnJ1ggkAgZW9M1Hj
vkkwEwYDVR0lBAwwCgYIKwYBBQUHAwIwCwYDVR0PBAQDAgeAMA0GCSqGSIb3DQEB
BQUAA4GBAAi4fl0NUdDWOpvn2PCah6gBkNmsMZiueRnYyl9hyH4w55cS7Culgzu5
AqHhtweTFgNsHHgsJpH+Wr1CbL4enQPnTswlgf++zvjCVwihUMmr9V8npFwcLgyT
JNC4DUbDaCrQ9acRzoW2xTZhnj4EMcxvlSt3pKNUrq7R4a2CAX7X
-----END CERTIFICATE-----
